target datalayout = "e-m:e-p270:32:32-p271:32:32-p272:64:64-i64:64-i128:128-f80:128-n8:16:32:64-S128"
target triple = "x86_64-pc-linux-gnu"

%struct.ident_t = type { i32, i32, i32, i32, ptr }
%"class.std::unique_ptr" = type { %"struct.std::__uniq_ptr_data" }
%"struct.std::__uniq_ptr_data" = type { %"class.std::__uniq_ptr_impl" }
%"class.std::__uniq_ptr_impl" = type { %"class.std::tuple" }
%"class.std::tuple" = type { %"struct.std::_Tuple_impl" }
%"struct.std::_Tuple_impl" = type { %"struct.std::_Head_base.11" }
%"struct.std::_Head_base.11" = type { ptr }

@1 = private unnamed_addr constant %struct.ident_t { i32 0, i32 514, i32 0, i32 22, ptr @0 }, align 8

; Function Attrs: mustprogress nounwind uwtable
define linkonce_odr noundef nonnull align 8 dereferenceable(8) ptr @_ZNSt10_Head_baseILm0EPfLb0EE7_M_headERKS1_(ptr noundef nonnull align 8 dereferenceable(8) %0) #0 comdat align 2 {
  %2 = alloca ptr, align 8
  store ptr %0, ptr %2, align 8
  %3 = load ptr, ptr %2, align 8
  %4 = getelementptr inbounds %"struct.std::_Head_base.11", ptr %3, i32 0, i32 0
  ret ptr %4
}

; Function Attrs: mustprogress nounwind uwtable
define linkonce_odr noundef nonnull align 8 dereferenceable(8) ptr @_ZNSt11_Tuple_implILm0EJPfSt14default_deleteIA_fEEE7_M_headERKS4_(ptr noundef nonnull align 8 dereferenceable(8) %0) #0 comdat align 2 {
  %2 = alloca ptr, align 8
  store ptr %0, ptr %2, align 8
  %3 = load ptr, ptr %2, align 8
  %4 = call noundef nonnull align 8 dereferenceable(8) ptr @_ZNSt10_Head_baseILm0EPfLb0EE7_M_headERKS1_(ptr noundef nonnull align 8 dereferenceable(8) %3) #2
  ret ptr %4
}

; Function Attrs: mustprogress nounwind uwtable
define linkonce_odr noundef nonnull align 8 dereferenceable(8) ptr @_ZSt12__get_helperILm0EPfJSt14default_deleteIA_fEEERKT0_RKSt11_Tuple_implIXT_EJS4_DpT1_EE(ptr noundef nonnull align 8 dereferenceable(8) %0) #0 comdat {
  %2 = alloca ptr, align 8
  store ptr %0, ptr %2, align 8
  %3 = load ptr, ptr %2, align 8
  %4 = call noundef nonnull align 8 dereferenceable(8) ptr @_ZNSt11_Tuple_implILm0EJPfSt14default_deleteIA_fEEE7_M_headERKS4_(ptr noundef nonnull align 8 dereferenceable(8) %3) #2
  ret ptr %4
}

; Function Attrs: mustprogress nounwind uwtable
define linkonce_odr noundef nonnull align 8 dereferenceable(8) ptr @_ZSt3getILm0EJPfSt14default_deleteIA_fEEERKNSt13tuple_elementIXT_ESt5tupleIJDpT0_EEE4typeERKS8_(ptr noundef nonnull align 8 dereferenceable(8) %0) #0 comdat {
  %2 = alloca ptr, align 8
  store ptr %0, ptr %2, align 8
  %3 = load ptr, ptr %2, align 8
  %4 = call noundef nonnull align 8 dereferenceable(8) ptr @_ZSt12__get_helperILm0EPfJSt14default_deleteIA_fEEERKT0_RKSt11_Tuple_implIXT_EJS4_DpT1_EE(ptr noundef nonnull align 8 dereferenceable(8) %3) #2
  ret ptr %4
}

; Function Attrs: mustprogress nounwind uwtable
define linkonce_odr noundef ptr @_ZNKSt15__uniq_ptr_implIfSt14default_deleteIA_fEE6_M_ptrEv(ptr noundef nonnull align 8 dereferenceable(8) %0) #0 comdat align 2 {
  %2 = alloca ptr, align 8
  store ptr %0, ptr %2, align 8
  %3 = load ptr, ptr %2, align 8
  %4 = getelementptr inbounds %"class.std::__uniq_ptr_impl", ptr %3, i32 0, i32 0
  %5 = call noundef nonnull align 8 dereferenceable(8) ptr @_ZSt3getILm0EJPfSt14default_deleteIA_fEEERKNSt13tuple_elementIXT_ESt5tupleIJDpT0_EEE4typeERKS8_(ptr noundef nonnull align 8 dereferenceable(8) %4) #2
  %6 = load ptr, ptr %5, align 8
  ret ptr %6
}

; Function Attrs: mustprogress nounwind uwtable
define linkonce_odr noundef nonnull align 4 dereferenceable(4) ptr @_ZNKSt10unique_ptrIA_fSt14default_deleteIS0_EEixEm(ptr noundef nonnull align 8 dereferenceable(8) %0, i64 noundef %1) #0 comdat align 2 {
  %3 = alloca ptr, align 8
  %4 = alloca i64, align 8
  store ptr %0, ptr %3, align 8
  store i64 %1, ptr %4, align 8
  %5 = load ptr, ptr %3, align 8
  br label %6

6:                                                ; preds = %2
  br label %7

7:                                                ; preds = %6
  %8 = call noundef ptr @_ZNKSt10unique_ptrIA_fSt14default_deleteIS0_EE3getEv(ptr noundef nonnull align 8 dereferenceable(8) %5) #2
  %9 = load i64, ptr %4, align 8
  %10 = getelementptr inbounds float, ptr %8, i64 %9
  ret ptr %10
}

; Function Attrs: mustprogress nounwind uwtable
define linkonce_odr noundef ptr @_ZNKSt10unique_ptrIA_fSt14default_deleteIS0_EE3getEv(ptr noundef nonnull align 8 dereferenceable(8) %0) #0 comdat align 2 {
  %2 = alloca ptr, align 8
  store ptr %0, ptr %2, align 8
  %3 = load ptr, ptr %2, align 8
  %4 = getelementptr inbounds %"class.std::unique_ptr", ptr %3, i32 0, i32 0
  %5 = call noundef ptr @_ZNKSt15__uniq_ptr_implIfSt14default_deleteIA_fEE6_M_ptrEv(ptr noundef nonnull align 8 dereferenceable(8) %4) #2
  ret ptr %5
}

; Function Attrs: norecurse nounwind uwtable
define internal void @_ZN5faiss12_GLOBAL__N_134exhaustive_L2sqr_blas_default_implINS_27ReservoirBlockResultHandlerINS_4CMaxIflEEEEEEvPKfS7_mmmRT_S7_.omp_outlined(ptr noalias noundef %0, ptr noalias noundef %1, ptr noundef nonnull align 8 dereferenceable(8) %2, ptr noundef nonnull align 8 dereferenceable(8) %3, ptr noundef nonnull align 8 dereferenceable(8) %4, ptr noundef nonnull align 8 dereferenceable(8) %5, ptr noundef nonnull align 8 dereferenceable(8) %6, ptr noundef nonnull align 8 dereferenceable(8) %7, ptr noundef nonnull align 8 dereferenceable(8) %8) #1 {
  %10 = alloca ptr, align 8
  %11 = alloca ptr, align 8
  %12 = alloca ptr, align 8
  %13 = alloca ptr, align 8
  %14 = alloca ptr, align 8
  %15 = alloca ptr, align 8
  %16 = alloca ptr, align 8
  %17 = alloca ptr, align 8
  %18 = alloca ptr, align 8
  %19 = alloca i64, align 8
  %20 = alloca i64, align 8
  %21 = alloca i64, align 8
  %22 = alloca i64, align 8
  %23 = alloca i64, align 8
  %24 = alloca i64, align 8
  %25 = alloca i64, align 8
  %26 = alloca i64, align 8
  %27 = alloca i32, align 4
  %28 = alloca i64, align 8
  %29 = alloca ptr, align 8
  %30 = alloca i64, align 8
  %31 = alloca float, align 4
  %32 = alloca float, align 4
  store ptr %0, ptr %10, align 8
  store ptr %1, ptr %11, align 8
  store ptr %2, ptr %12, align 8
  store ptr %3, ptr %13, align 8
  store ptr %4, ptr %14, align 8
  store ptr %5, ptr %15, align 8
  store ptr %6, ptr %16, align 8
  store ptr %7, ptr %17, align 8
  store ptr %8, ptr %18, align 8
  %33 = load ptr, ptr %12, align 8
  %34 = load ptr, ptr %13, align 8
  %35 = load ptr, ptr %14, align 8
  %36 = load ptr, ptr %15, align 8
  %37 = load ptr, ptr %16, align 8
  %38 = load ptr, ptr %17, align 8
  %39 = load ptr, ptr %18, align 8
  %40 = load i64, ptr %33, align 8
  store i64 %40, ptr %20, align 8
  %41 = load i64, ptr %34, align 8
  store i64 %41, ptr %21, align 8
  %42 = load i64, ptr %21, align 8
  %43 = load i64, ptr %20, align 8
  %44 = sub i64 %42, %43
  %45 = sub i64 %44, 1
  %46 = add i64 %45, 1
  %47 = udiv i64 %46, 1
  %48 = sub i64 %47, 1
  store i64 %48, ptr %22, align 8
  %49 = load i64, ptr %20, align 8
  store i64 %49, ptr %23, align 8
  %50 = load i64, ptr %20, align 8
  %51 = load i64, ptr %21, align 8
  %52 = icmp ult i64 %50, %51
  br i1 %52, label %53, label %124

53:                                               ; preds = %9
  store i64 0, ptr %24, align 8
  %54 = load i64, ptr %22, align 8
  store i64 %54, ptr %25, align 8
  store i64 1, ptr %26, align 8
  store i32 0, ptr %27, align 4
  %55 = load ptr, ptr %10, align 8
  %56 = load i32, ptr %55, align 4
  call void @__kmpc_for_static_init_8u(ptr @1, i32 %56, i32 34, ptr %27, ptr %24, ptr %25, ptr %26, i64 1, i64 1)
  %57 = load i64, ptr %25, align 8
  %58 = load i64, ptr %22, align 8
  %59 = icmp ugt i64 %57, %58
  br i1 %59, label %60, label %62

60:                                               ; preds = %53
  %61 = load i64, ptr %22, align 8
  br label %64

62:                                               ; preds = %53
  %63 = load i64, ptr %25, align 8
  br label %64

64:                                               ; preds = %62, %60
  %65 = phi i64 [ %61, %60 ], [ %63, %62 ]
  store i64 %65, ptr %25, align 8
  %66 = load i64, ptr %24, align 8
  store i64 %66, ptr %19, align 8
  br label %67

67:                                               ; preds = %117, %64
  %68 = load i64, ptr %19, align 8
  %69 = load i64, ptr %25, align 8
  %70 = add i64 %69, 1
  %71 = icmp ult i64 %68, %70
  br i1 %71, label %72, label %120

72:                                               ; preds = %67
  %73 = load i64, ptr %20, align 8
  %74 = load i64, ptr %19, align 8
  %75 = mul i64 %74, 1
  %76 = add i64 %73, %75
  store i64 %76, ptr %28, align 8
  %77 = call noundef ptr @_ZNKSt10unique_ptrIA_fSt14default_deleteIS0_EE3getEv(ptr noundef nonnull align 8 dereferenceable(8) %35) #2
  %78 = load i64, ptr %28, align 8
  %79 = load i64, ptr %33, align 8
  %80 = sub i64 %78, %79
  %81 = load i64, ptr %36, align 8
  %82 = load i64, ptr %37, align 8
  %83 = sub i64 %81, %82
  %84 = mul i64 %80, %83
  %85 = getelementptr inbounds float, ptr %77, i64 %84
  store ptr %85, ptr %29, align 8
  %86 = load i64, ptr %37, align 8
  store i64 %86, ptr %30, align 8
  br label %87

87:                                               ; preds = %112, %72
  %88 = load i64, ptr %30, align 8
  %89 = load i64, ptr %36, align 8
  %90 = icmp ult i64 %88, %89
  br i1 %90, label %91, label %115

91:                                               ; preds = %87
  %92 = load ptr, ptr %29, align 8
  %93 = load float, ptr %92, align 4
  store float %93, ptr %31, align 4
  %94 = load i64, ptr %28, align 8
  %95 = call noundef nonnull align 4 dereferenceable(4) ptr @_ZNKSt10unique_ptrIA_fSt14default_deleteIS0_EEixEm(ptr noundef nonnull align 8 dereferenceable(8) %38, i64 noundef %94)
  %96 = load float, ptr %95, align 4
  %97 = load ptr, ptr %39, align 8
  %98 = load i64, ptr %30, align 8
  %99 = getelementptr inbounds float, ptr %97, i64 %98
  %100 = load float, ptr %99, align 4
  %101 = fadd float %96, %100
  %102 = load float, ptr %31, align 4
  %103 = call float @llvm.fmuladd.f32(float -2.000000e+00, float %102, float %101)
  store float %103, ptr %32, align 4
  %104 = load float, ptr %32, align 4
  %105 = fcmp olt float %104, 0.000000e+00
  br i1 %105, label %106, label %107

106:                                              ; preds = %91
  store float 0.000000e+00, ptr %32, align 4
  br label %107

107:                                              ; preds = %106, %91
  %108 = load float, ptr %32, align 4
  %109 = load ptr, ptr %29, align 8
  store float %108, ptr %109, align 4
  %110 = load ptr, ptr %29, align 8
  %111 = getelementptr inbounds float, ptr %110, i32 1
  store ptr %111, ptr %29, align 8
  br label %112

112:                                              ; preds = %107
  %113 = load i64, ptr %30, align 8
  %114 = add i64 %113, 1
  store i64 %114, ptr %30, align 8
  br label %87, !llvm.loop !85

115:                                              ; preds = %87
  br label %116

116:                                              ; preds = %115
  br label %117

117:                                              ; preds = %116
  %118 = load i64, ptr %19, align 8
  %119 = add i64 %118, 1
  store i64 %119, ptr %19, align 8
  br label %67

120:                                              ; preds = %67
  br label %121

121:                                              ; preds = %120
  %122 = load ptr, ptr %10, align 8
  %123 = load i32, ptr %122, align 4
  call void @__kmpc_for_static_fini(ptr @1, i32 %123)
  br label %124

124:                                              ; preds = %121, %9
  ret void
}