; Function Attrs: norecurse nounwind uwtable
define internal void @_ZN5faiss12_GLOBAL__N_134exhaustive_L2sqr_blas_default_implINS_27ReservoirBlockResultHandlerINS_4CMaxIflEEEEEEvPKfS7_mmmRT_S7_.omp_outlined(ptr noalias nocapture noundef readonly %0, ptr noalias nocapture readnone %1, ptr nocapture noundef nonnull readonly align 8 dereferenceable(8) %2, ptr nocapture noundef nonnull readonly align 8 dereferenceable(8) %3, ptr nocapture noundef nonnull readonly align 8 dereferenceable(8) %4, ptr nocapture noundef nonnull readonly align 8 dereferenceable(8) %5, ptr nocapture noundef nonnull readonly align 8 dereferenceable(8) %6, ptr nocapture noundef nonnull readonly align 8 dereferenceable(8) %7, ptr nocapture noundef nonnull readonly align 8 dereferenceable(8) %8) #1 {
  %10 = alloca i64, align 8
  %11 = alloca i64, align 8
  %12 = alloca i64, align 8
  %13 = alloca i32, align 4
  %14 = load i64, ptr %2, align 8
  %15 = load i64, ptr %3, align 8
  %16 = icmp ult i64 %14, %15
  br i1 %16, label %17, label %59

17:                                               ; preds = %9
  %18 = xor i64 %14, -1
  %19 = add i64 %15, %18
  store i64 0, ptr %10, align 8
  store i64 %19, ptr %11, align 8
  store i64 1, ptr %12, align 8
  store i32 0, ptr %13, align 4
  %20 = load i32, ptr %0, align 4
  call void @__kmpc_for_static_init_8u(ptr nonnull @1, i32 %20, i32 34, ptr nonnull %13, ptr nonnull %10, ptr nonnull %11, ptr nonnull %12, i64 1, i64 1)
  %21 = load i64, ptr %11, align 8
  %22 = call i64 @llvm.umin.i64(i64 %21, i64 %19)
  store i64 %22, ptr %11, align 8
  %23 = load i64, ptr %10, align 8
  %24 = add i64 %22, 1
  %25 = icmp ult i64 %23, %24
  br i1 %25, label %.lr.ph40, label %._crit_edge41

.lr.ph40:                                         ; preds = %17
  %26 = load i64, ptr %6, align 8
  %27 = load i64, ptr %5, align 8
  %28 = icmp ult i64 %26, %27
  br i1 %28, label %.lr.ph40.split, label %._crit_edge41

.lr.ph40.split:                                   ; preds = %.lr.ph40, %._crit_edge
  %29 = phi i64 [ %54, %._crit_edge ], [ %22, %.lr.ph40 ]
  %30 = phi i64 [ %55, %._crit_edge ], [ %27, %.lr.ph40 ]
  %.03138 = phi i64 [ %56, %._crit_edge ], [ %23, %.lr.ph40 ]
  %31 = add i64 %.03138, %14
  %32 = load i64, ptr %6, align 8
  %33 = icmp ult i64 %32, %30
  br i1 %33, label %.lr.ph.preheader, label %._crit_edge

.lr.ph.preheader:                                 ; preds = %.lr.ph40.split
  %34 = load ptr, ptr %4, align 8
  %35 = sub i64 %30, %32
  %36 = load i64, ptr %2, align 8
  %37 = sub i64 %31, %36
  %38 = mul i64 %35, %37
  %39 = getelementptr inbounds float, ptr %34, i64 %38
  br label %.lr.ph

.lr.ph:                                           ; preds = %.lr.ph.preheader, %.lr.ph
  %.03237 = phi i64 [ %51, %.lr.ph ], [ %32, %.lr.ph.preheader ]
  %.03336 = phi ptr [ %50, %.lr.ph ], [ %39, %.lr.ph.preheader ]
  %40 = load float, ptr %.03336, align 4
  %41 = load ptr, ptr %7, align 8
  %42 = getelementptr inbounds float, ptr %41, i64 %31
  %43 = load float, ptr %42, align 4
  %44 = load ptr, ptr %8, align 8
  %45 = getelementptr inbounds float, ptr %44, i64 %.03237
  %46 = load float, ptr %45, align 4
  %47 = fadd float %43, %46
  %48 = call float @llvm.fmuladd.f32(float %40, float -2.000000e+00, float %47)
  %49 = fcmp olt float %48, 0.000000e+00
  %.0 = select i1 %49, float 0.000000e+00, float %48
  store float %.0, ptr %.03336, align 4
  %50 = getelementptr inbounds i8, ptr %.03336, i64 4
  %51 = add nuw i64 %.03237, 1
  %52 = load i64, ptr %5, align 8
  %53 = icmp ult i64 %51, %52
  br i1 %53, label %.lr.ph, label %._crit_edge.loopexit, !llvm.loop !115

._crit_edge.loopexit:                             ; preds = %.lr.ph
  %.pre = load i64, ptr %11, align 8
  br label %._crit_edge

._crit_edge:                                      ; preds = %._crit_edge.loopexit, %.lr.ph40.split
  %54 = phi i64 [ %.pre, %._crit_edge.loopexit ], [ %29, %.lr.ph40.split ]
  %55 = phi i64 [ %52, %._crit_edge.loopexit ], [ %30, %.lr.ph40.split ]
  %56 = add nuw i64 %.03138, 1
  %57 = add i64 %54, 1
  %58 = icmp ult i64 %56, %57
  br i1 %58, label %.lr.ph40.split, label %._crit_edge41, !llvm.loop !116

._crit_edge41:                                    ; preds = %._crit_edge, %.lr.ph40, %17
  call void @__kmpc_for_static_fini(ptr nonnull @1, i32 %20)
  br label %59

59:                                               ; preds = %._crit_edge41, %9
  ret void
}